; Function Attrs: mustprogress uwtable
define internal void @_ZN12_GLOBAL__N_115onTrackbarBIMEFEiPv(i32 %0, ptr readnone captures(none) %1) #6 personality ptr @__gxx_personality_v0 {
  %3 = alloca %"class.cv::_InputArray", align 8
  %4 = alloca %"class.cv::_OutputArray", align 8
  %5 = alloca %"class.cv::_InputArray", align 8
  %6 = load i32, ptr @_ZN12_GLOBAL__N_14g_muE, align 4, !tbaa !19
  call void @llvm.lifetime.start.p0(i64 24, ptr nonnull %3) #11
  %7 = getelementptr inbounds nuw i8, ptr %3, i64 16
  store i32 0, ptr %7, align 8, !tbaa !21
  %8 = getelementptr inbounds nuw i8, ptr %3, i64 20
  store i32 0, ptr %8, align 4, !tbaa !23
  store i32 16842752, ptr %3, align 8, !tbaa !24
  %9 = getelementptr inbounds nuw i8, ptr %3, i64 8
  store ptr @_ZN12_GLOBAL__N_17g_imageE, ptr %9, align 8, !tbaa !26
  call void @llvm.lifetime.start.p0(i64 24, ptr nonnull %4) #11
  %10 = getelementptr inbounds nuw i8, ptr %4, i64 8
  %11 = getelementptr inbounds nuw i8, ptr %4, i64 16
  store i64 0, ptr %11, align 8
  store i32 33619968, ptr %4, align 8, !tbaa !24
  store ptr @_ZN12_GLOBAL__N_110g_imgBIMEFE, ptr %10, align 8, !tbaa !26
  %12 = sitofp i32 %6 to float
  %13 = fdiv float %12, 1.000000e+02
  call void @_ZN2cv19intensity_transform5BIMEFERKNS_11_InputArrayERKNS_12_OutputArrayEfff(ptr noundef nonnull align 8 dereferenceable(24) %3, ptr noundef nonnull align 8 dereferenceable(24) %4, float noundef %13, float noundef 0xBFD5134040000000, float noundef 0x3FF20346E0000000)
  call void @llvm.lifetime.end.p0(i64 24, ptr nonnull %4) #11
  call void @llvm.lifetime.end.p0(i64 24, ptr nonnull %3) #11
  call void @llvm.lifetime.start.p0(i64 24, ptr nonnull %5) #11
  %14 = getelementptr inbounds nuw i8, ptr %5, i64 16
  store i32 0, ptr %14, align 8, !tbaa !21
  %15 = getelementptr inbounds nuw i8, ptr %5, i64 20
  store i32 0, ptr %15, align 4, !tbaa !23
  store i32 16842752, ptr %5, align 8, !tbaa !24
  %16 = getelementptr inbounds nuw i8, ptr %5, i64 8
  store ptr @_ZN12_GLOBAL__N_110g_imgBIMEFE, ptr %16, align 8, !tbaa !26
  call void @_ZN2cv6imshowERKNSt7__cxx1112basic_stringIcSt11char_traitsIcESaIcEEERKNS_11_InputArrayE(ptr noundef nonnull align 8 dereferenceable(32) @_ZN12_GLOBAL__N_114g_BIMEFWinNameB5cxx11E, ptr noundef nonnull align 8 dereferenceable(24) %5)
  call void @llvm.lifetime.end.p0(i64 24, ptr nonnull %5) #11
  ret void
}